; Function Attrs: nounwind uwtable
define void @qasm_recordMeasurement(ptr noundef readonly byval(%struct.Qureg) align 8 captures(none) %0, i32 noundef %1) local_unnamed_addr #0 {
  %3 = alloca [1025 x i8], align 16
  %4 = getelementptr inbounds nuw i8, ptr %0, i64 128
  %5 = load ptr, ptr %4, align 8, !tbaa !4
  %6 = getelementptr inbounds nuw i8, ptr %5, i64 16
  %7 = load i32, ptr %6, align 8, !tbaa !14
  %.not = icmp eq i32 %7, 0
  br i1 %.not, label %34, label %8

8:                                                ; preds = %2
  call void @llvm.lifetime.start.p0(i64 1025, ptr nonnull %3) #16
  %9 = call i32 (ptr, i64, ptr, ...) @snprintf(ptr noundef nonnull dereferenceable(1) %3, i64 noundef 1024, ptr noundef nonnull @.str.34, ptr noundef nonnull @.str.35, ptr noundef nonnull @.str.1, i32 noundef %1, ptr noundef nonnull @.str.2, i32 noundef %1) #16
  %10 = icmp sgt i32 %9, 1023
  br i1 %10, label %11, label %12

11:                                               ; preds = %8
  tail call void @raiseQASMBufferOverflow(ptr noundef nonnull @__func__.qasm_recordMeasurement) #16
  br label %12

12:                                               ; preds = %11, %8
  %13 = load ptr, ptr %5, align 8, !tbaa !18
  %14 = getelementptr inbounds nuw i8, ptr %5, i64 8
  %15 = load i32, ptr %14, align 8, !tbaa !17
  %16 = getelementptr inbounds nuw i8, ptr %5, i64 12
  %17 = load i32, ptr %16, align 4, !tbaa !20
  %18 = add nsw i32 %17, %9
  %19 = icmp sgt i32 %18, %15
  br i1 %19, label %20, label %addStringToQASM.exit

20:                                               ; preds = %12
  %21 = shl nsw i32 %15, 1
  %22 = icmp sgt i32 %18, %21
  br i1 %22, label %23, label %24

23:                                               ; preds = %20
  tail call void @raiseQASMBufferOverflow(ptr noundef nonnull @__func__.addStringToQASM) #16
  br label %24

24:                                               ; preds = %23, %20
  %25 = sext i32 %21 to i64
  %26 = tail call noalias ptr @malloc(i64 noundef %25) #15
  %strcpy.i = tail call ptr @strcpy(ptr noundef nonnull dereferenceable(1) %26, ptr noundef nonnull dereferenceable(1) %13)
  tail call void @free(ptr noundef %13) #16
  store i32 %21, ptr %14, align 8, !tbaa !17
  store ptr %26, ptr %5, align 8, !tbaa !18
  br label %addStringToQASM.exit

addStringToQASM.exit:                             ; preds = %12, %24
  %.020.i = phi i32 [ %21, %24 ], [ %15, %12 ]
  %.0.i = phi ptr [ %26, %24 ], [ %13, %12 ]
  %27 = sext i32 %17 to i64
  %28 = getelementptr inbounds i8, ptr %.0.i, i64 %27
  %29 = sub nsw i32 %.020.i, %17
  %30 = sext i32 %29 to i64
  %31 = call i32 (ptr, i64, ptr, ...) @snprintf(ptr noundef %28, i64 noundef %30, ptr noundef nonnull @.str.3, ptr noundef nonnull %3) #16
  %32 = load i32, ptr %16, align 4, !tbaa !20
  %33 = add nsw i32 %32, %31
  store i32 %33, ptr %16, align 4, !tbaa !20
  call void @llvm.lifetime.end.p0(i64 1025, ptr nonnull %3) #16
  br label %34

34:                                               ; preds = %2, %addStringToQASM.exit
  ret void
}